; Function Attrs: mustprogress nofree norecurse nosync nounwind willreturn memory(argmem: readwrite) uwtable
define hidden void @_ZN2cv10xobjdetect9WaldBoost5resetEi(ptr noundef nonnull align 8 captures(none) dereferenceable(128) initializes((0, 4)) %0, i32 noundef %1) local_unnamed_addr #11 align 2 personality ptr @__gxx_personality_v0 {
  store i32 %1, ptr %0, align 8, !tbaa !3
  %3 = getelementptr inbounds nuw i8, ptr %0, i64 8
  %4 = load ptr, ptr %3, align 8, !tbaa !36
  %5 = getelementptr inbounds nuw i8, ptr %0, i64 16
  %6 = load ptr, ptr %5, align 8, !tbaa !35
  %.not.i.i = icmp eq ptr %6, %4
  br i1 %.not.i.i, label %_ZNSt6vectorIfSaIfEE5clearEv.exit, label %7

7:                                                ; preds = %2
  store ptr %4, ptr %5, align 8, !tbaa !35
  br label %_ZNSt6vectorIfSaIfEE5clearEv.exit

_ZNSt6vectorIfSaIfEE5clearEv.exit:                ; preds = %2, %7
  %8 = getelementptr inbounds nuw i8, ptr %0, i64 32
  %9 = load ptr, ptr %8, align 8, !tbaa !36
  %10 = getelementptr inbounds nuw i8, ptr %0, i64 40
  %11 = load ptr, ptr %10, align 8, !tbaa !35
  %.not.i.i1 = icmp eq ptr %11, %9
  br i1 %.not.i.i1, label %_ZNSt6vectorIfSaIfEE5clearEv.exit2, label %12

12:                                               ; preds = %_ZNSt6vectorIfSaIfEE5clearEv.exit
  store ptr %9, ptr %10, align 8, !tbaa !35
  br label %_ZNSt6vectorIfSaIfEE5clearEv.exit2

_ZNSt6vectorIfSaIfEE5clearEv.exit2:               ; preds = %_ZNSt6vectorIfSaIfEE5clearEv.exit, %12
  %13 = getelementptr inbounds nuw i8, ptr %0, i64 56
  %14 = load ptr, ptr %13, align 8, !tbaa !20
  %15 = getelementptr inbounds nuw i8, ptr %0, i64 64
  %16 = load ptr, ptr %15, align 8, !tbaa !19
  %.not.i.i3 = icmp eq ptr %16, %14
  br i1 %.not.i.i3, label %_ZNSt6vectorIiSaIiEE5clearEv.exit, label %17

17:                                               ; preds = %_ZNSt6vectorIfSaIfEE5clearEv.exit2
  store ptr %14, ptr %15, align 8, !tbaa !19
  br label %_ZNSt6vectorIiSaIiEE5clearEv.exit

_ZNSt6vectorIiSaIiEE5clearEv.exit:                ; preds = %_ZNSt6vectorIfSaIfEE5clearEv.exit2, %17
  %18 = getelementptr inbounds nuw i8, ptr %0, i64 80
  %19 = load ptr, ptr %18, align 8, !tbaa !20
  %20 = getelementptr inbounds nuw i8, ptr %0, i64 88
  %21 = load ptr, ptr %20, align 8, !tbaa !19
  %.not.i.i4 = icmp eq ptr %21, %19
  br i1 %.not.i.i4, label %_ZNSt6vectorIiSaIiEE5clearEv.exit5, label %22

22:                                               ; preds = %_ZNSt6vectorIiSaIiEE5clearEv.exit
  store ptr %19, ptr %20, align 8, !tbaa !19
  br label %_ZNSt6vectorIiSaIiEE5clearEv.exit5

_ZNSt6vectorIiSaIiEE5clearEv.exit5:               ; preds = %_ZNSt6vectorIiSaIiEE5clearEv.exit, %22
  %23 = getelementptr inbounds nuw i8, ptr %0, i64 104
  %24 = load ptr, ptr %23, align 8, !tbaa !36
  %25 = getelementptr inbounds nuw i8, ptr %0, i64 112
  %26 = load ptr, ptr %25, align 8, !tbaa !35
  %.not.i.i6 = icmp eq ptr %26, %24
  br i1 %.not.i.i6, label %_ZNSt6vectorIfSaIfEE5clearEv.exit7, label %27

27:                                               ; preds = %_ZNSt6vectorIiSaIiEE5clearEv.exit5
  store ptr %24, ptr %25, align 8, !tbaa !35
  br label %_ZNSt6vectorIfSaIfEE5clearEv.exit7

_ZNSt6vectorIfSaIfEE5clearEv.exit7:               ; preds = %_ZNSt6vectorIiSaIiEE5clearEv.exit5, %27
  ret void
}